target datalayout = "e-m:e-p270:32:32-p271:32:32-p272:64:64-i64:64-i128:128-f80:128-n8:16:32:64-S128"
target triple = "x86_64-pc-linux-gnu"

%"class.euf::th_solver" = type { %"class.sat::extension", %"class.euf::th_model_builder", %"class.euf::th_decompile", %"class.euf::th_internalizer", ptr }
%"class.sat::extension" = type { ptr, i8, i32, %class.symbol, ptr }
%class.symbol = type { ptr }
%"class.euf::th_model_builder" = type { ptr }
%"class.euf::th_decompile" = type { ptr }
%"class.euf::th_internalizer" = type { ptr, %class.ptr_vector, %class.svector }
%class.svector = type { %class.vector.0 }
%class.vector.0 = type { ptr }
%class.ptr_vector = type { %class.vector }
%class.vector = type { ptr }
%class.svector.1 = type { %class.vector.2 }
%class.vector.2 = type { ptr }
%class.svector.5 = type { %class.vector.6 }
%class.vector.6 = type { ptr }
%"class.euf::justification" = type { i32, %union.anon.58, %union.anon.59 }
%union.anon.58 = type { ptr }
%union.anon.59 = type { ptr }
%class.ptr_vector.7 = type { %class.vector.8 }
%class.vector.8 = type { ptr }
%class.arith_util = type { ptr, ptr }
%class.bv_util = type { %class.bv_recognizers, ptr, ptr }
%class.bv_recognizers = type { i32 }
%class.svector.27 = type { %class.vector.28 }
%class.vector.28 = type { ptr }
%"class.sat::literal" = type { i32 }
%class.svector.3 = type { %class.vector.4 }
%class.vector.4 = type { ptr }
%class.vector.9 = type { ptr }
%class.ref_vector = type { %class.ref_vector_core }
%class.ref_vector_core = type { %class.ref_manager_wrapper, %class.ptr_vector.7 }
%class.ref_manager_wrapper = type { ptr }
%"class.bv::solver" = type { %"class.euf::th_euf_solver.base", %class.svector.3, i32, i32, %class.bv_util, %class.arith_util, %"struct.bv::solver::stats", %"class.bv::ackerman", %class.bit_blaster, %class.union_find, %class.vector.9, %class.svector.1, %class.vector.10, %class.ptr_vector.11, %class.map, %class.vector.15, %class.svector.3, %class.svector.16, %class.svector.1, i32, %"class.sat::literal", %class.ptr_vector, %class.obj_map, %class.obj_map.22, i8, [2 x %class.svector.27] }
%"class.euf::th_euf_solver.base" = type <{ %"class.euf::th_solver", ptr, %class.ptr_vector, %class.svector.1, i32 }>
%"struct.bv::solver::stats" = type { i32, i32, i32, i32, i32, i32, i32, i32 }
%"class.bv::ackerman" = type { ptr, %class.hashtable, ptr, ptr, i32, i32, i32, i32, %class.svector.5 }
%class.hashtable = type { %class.core_hashtable.base, [4 x i8] }
%class.core_hashtable.base = type <{ ptr, i32, i32, i32 }>
%class.bit_blaster = type { %class.bit_blaster_tpl, %class.bv_util, %class.bool_rewriter }
%class.bit_blaster_tpl = type { %class.bit_blaster_cfg, i64 }
%class.bit_blaster_cfg = type { ptr, ptr, ptr }
%class.bool_rewriter = type { ptr, i8, i8, i8, i8, i8, i8, i32, i8, i32, i32, i8, %class.ptr_vector.7, %class.ptr_vector.7, %class.svector.1, %class.svector.1 }
%class.union_find = type { ptr, ptr, %class.svector.1, %class.svector.1, %class.svector.1, %"class.union_find<bv::solver>::mk_var_trail" }
%"class.union_find<bv::solver>::mk_var_trail" = type { %class.trail, ptr }
%class.trail = type { ptr }
%class.vector.10 = type { ptr }
%class.ptr_vector.11 = type { %class.vector.12 }
%class.vector.12 = type { ptr }
%class.map = type { %class.table2map }
%class.table2map = type { %class.core_hashtable.13 }
%class.core_hashtable.13 = type <{ [8 x i8], ptr, i32, i32, i32, [4 x i8] }>
%class.vector.15 = type { ptr }
%class.svector.16 = type { %class.vector.17 }
%class.vector.17 = type { ptr }
%class.obj_map = type { %class.core_hashtable.18 }
%class.core_hashtable.18 = type <{ ptr, i32, i32, i32, [4 x i8] }>
%class.obj_map.22 = type { %class.core_hashtable.23 }
%class.core_hashtable.23 = type <{ ptr, i32, i32, i32, [4 x i8] }>
%class.obj_ref = type { ptr, ptr }
%"class.euf::enode" = type { ptr, i8, i8, i8, i8, i8, i8, i8, i8, i8, i32, i32, i32, i32, i32, i32, %class.ptr_vector, ptr, ptr, ptr, ptr, %class.id_var_list, %"class.euf::justification", %"class.euf::justification", i32, i8, %class.approx_set, %class.approx_set, [0 x ptr] }
%class.id_var_list = type { i32, ptr }
%class.approx_set = type { %class.approx_set_tpl.210 }
%class.approx_set_tpl.210 = type { i64 }

; Function Attrs: mustprogress nounwind uwtable
define linkonce_odr hidden void @_ZN6vectorIP4exprLb0EjEC2Ev(ptr noundef nonnull align 8 dereferenceable(8) %0) unnamed_addr #7 comdat align 2 {
  %2 = alloca ptr, align 8
  store ptr %0, ptr %2, align 8, !tbaa !494
  %3 = load ptr, ptr %2, align 8
  %4 = getelementptr inbounds nuw %class.vector.8, ptr %3, i32 0, i32 0
  store ptr null, ptr %4, align 8, !tbaa !496
  ret void
}

; Function Attrs: mustprogress nounwind uwtable
define linkonce_odr hidden void @_ZN10ptr_vectorI4exprEC2Ev(ptr noundef nonnull align 8 dereferenceable(8) %0) unnamed_addr #7 comdat align 2 {
  %2 = alloca ptr, align 8
  store ptr %0, ptr %2, align 8, !tbaa !512
  %3 = load ptr, ptr %2, align 8
  call void @_ZN6vectorIP4exprLb0EjEC2Ev(ptr noundef nonnull align 8 dereferenceable(8) %3) #3
  ret void
}

; Function Attrs: mustprogress nounwind uwtable
define linkonce_odr hidden noundef ptr @_ZNK7obj_refI4expr11ast_managerE3getEv(ptr noundef nonnull align 8 dereferenceable(16) %0) #7 comdat align 2 {
  %2 = alloca ptr, align 8
  store ptr %0, ptr %2, align 8, !tbaa !131
  %3 = load ptr, ptr %2, align 8
  %4 = getelementptr inbounds nuw %class.obj_ref, ptr %3, i32 0, i32 0
  %5 = load ptr, ptr %4, align 8, !tbaa !144
  ret ptr %5
}

; Function Attrs: inlinehint mustprogress nounwind uwtable
define linkonce_odr hidden noundef ptr @_Z6to_appP3ast(ptr noundef %0) #6 comdat {
  %2 = alloca ptr, align 8
  store ptr %0, ptr %2, align 8, !tbaa !44
  %3 = load ptr, ptr %2, align 8, !tbaa !44
  ret ptr %3
}

; Function Attrs: mustprogress nounwind uwtable
define linkonce_odr hidden void @_ZN15ref_vector_coreI4expr19ref_manager_wrapperIS0_11ast_managerEEC2ERKS3_(ptr noundef nonnull align 8 dereferenceable(16) %0, ptr noundef nonnull align 8 dereferenceable(8) %1) unnamed_addr #7 comdat align 2 {
  %3 = alloca ptr, align 8
  %4 = alloca ptr, align 8
  store ptr %0, ptr %3, align 8, !tbaa !129
  store ptr %1, ptr %4, align 8, !tbaa !508
  %5 = load ptr, ptr %3, align 8
  %6 = load ptr, ptr %4, align 8, !tbaa !508
  call void @llvm.memcpy.p0.p0.i64(ptr align 8 %5, ptr align 8 %6, i64 8, i1 false), !tbaa.struct !510
  %7 = getelementptr inbounds nuw %class.ref_vector_core, ptr %5, i32 0, i32 1
  call void @_ZN10ptr_vectorI4exprEC2Ev(ptr noundef nonnull align 8 dereferenceable(8) %7) #3
  ret void
}

; Function Attrs: mustprogress nounwind uwtable
define linkonce_odr hidden void @_ZN19ref_manager_wrapperI4expr11ast_managerEC2ERS1_(ptr noundef nonnull align 8 dereferenceable(8) %0, ptr noundef nonnull align 8 dereferenceable(976) %1) unnamed_addr #7 comdat align 2 {
  %3 = alloca ptr, align 8
  %4 = alloca ptr, align 8
  store ptr %0, ptr %3, align 8, !tbaa !508
  store ptr %1, ptr %4, align 8, !tbaa !133
  %5 = load ptr, ptr %3, align 8
  %6 = getelementptr inbounds nuw %class.ref_manager_wrapper, ptr %5, i32 0, i32 0
  %7 = load ptr, ptr %4, align 8, !tbaa !133
  store ptr %7, ptr %6, align 8, !tbaa !133
  ret void
}

; Function Attrs: inlinehint mustprogress nounwind uwtable
define linkonce_odr hidden noundef zeroext i1 @_ZeqI4expr11ast_managerEbRK7obj_refIT_T0_ES7_(ptr noundef nonnull align 8 dereferenceable(16) %0, ptr noundef nonnull align 8 dereferenceable(16) %1) #6 comdat {
  %3 = alloca ptr, align 8
  %4 = alloca ptr, align 8
  store ptr %0, ptr %3, align 8, !tbaa !131
  store ptr %1, ptr %4, align 8, !tbaa !131
  %5 = load ptr, ptr %3, align 8, !tbaa !131
  %6 = call noundef ptr @_ZNK7obj_refI4expr11ast_managerE3getEv(ptr noundef nonnull align 8 dereferenceable(16) %5)
  %7 = load ptr, ptr %4, align 8, !tbaa !131
  %8 = call noundef ptr @_ZNK7obj_refI4expr11ast_managerE3getEv(ptr noundef nonnull align 8 dereferenceable(16) %7)
  %9 = icmp eq ptr %6, %8
  ret i1 %9
}

; Function Attrs: mustprogress nounwind uwtable
define linkonce_odr hidden noundef ptr @_ZNK3euf5enode7get_appEv(ptr noundef nonnull align 8 dereferenceable(176) %0) #7 comdat align 2 {
  %2 = alloca ptr, align 8
  store ptr %0, ptr %2, align 8, !tbaa !10
  %3 = load ptr, ptr %2, align 8
  %4 = getelementptr inbounds nuw %"class.euf::enode", ptr %3, i32 0, i32 0
  %5 = load ptr, ptr %4, align 8, !tbaa !135
  %6 = call noundef ptr @_Z6to_appP3ast(ptr noundef %5)
  ret ptr %6
}

; Function Attrs: mustprogress uwtable
define linkonce_odr hidden void @_ZN10ref_vectorI4expr11ast_managerEC2ERS1_(ptr noundef nonnull align 8 dereferenceable(16) %0, ptr noundef nonnull align 8 dereferenceable(976) %1) unnamed_addr #4 comdat align 2 {
  %3 = alloca ptr, align 8
  %4 = alloca ptr, align 8
  %5 = alloca %class.ref_manager_wrapper, align 8
  store ptr %0, ptr %3, align 8, !tbaa !122
  store ptr %1, ptr %4, align 8, !tbaa !133
  %6 = load ptr, ptr %3, align 8
  call void @llvm.lifetime.start.p0(i64 8, ptr %5) #3
  %7 = load ptr, ptr %4, align 8, !tbaa !133
  call void @_ZN19ref_manager_wrapperI4expr11ast_managerEC2ERS1_(ptr noundef nonnull align 8 dereferenceable(8) %5, ptr noundef nonnull align 8 dereferenceable(976) %7)
  call void @_ZN15ref_vector_coreI4expr19ref_manager_wrapperIS0_11ast_managerEEC2ERKS3_(ptr noundef nonnull align 8 dereferenceable(16) %6, ptr noundef nonnull align 8 dereferenceable(8) %5)
  call void @llvm.lifetime.end.p0(i64 8, ptr %5) #3
  ret void
}

; Function Attrs: mustprogress uwtable
define hidden noundef zeroext i1 @_ZN2bv6solver13check_bv_evalEPN3euf5enodeE(ptr noundef nonnull align 8 dereferenceable(640) %0, ptr noundef %1) #4 align 2 personality ptr @__gxx_personality_v0 {
  %3 = alloca i1, align 1
  %4 = alloca ptr, align 8
  %5 = alloca ptr, align 8
  %6 = alloca %class.ref_vector, align 8
  %7 = alloca ptr, align 8
  %8 = alloca ptr, align 8
  %9 = alloca i32, align 4
  %10 = alloca %class.obj_ref, align 8
  %11 = alloca %class.obj_ref, align 8
  %12 = alloca i32, align 4
  store ptr %0, ptr %4, align 8, !tbaa !3
  store ptr %1, ptr %5, align 8, !tbaa !10
  %13 = load ptr, ptr %4, align 8
  call void @llvm.lifetime.start.p0(i64 16, ptr %6) #3
  %14 = getelementptr inbounds nuw %"class.euf::th_solver", ptr %13, i32 0, i32 4
  %15 = load ptr, ptr %14, align 8, !tbaa !48
  call void @_ZN10ref_vectorI4expr11ast_managerEC2ERS1_(ptr noundef nonnull align 8 dereferenceable(16) %6, ptr noundef nonnull align 8 dereferenceable(976) %15)
  call void @llvm.lifetime.start.p0(i64 8, ptr %7) #3
  %16 = load ptr, ptr %5, align 8, !tbaa !10
  %17 = invoke noundef ptr @_ZNK3euf5enode7get_appEv(ptr noundef nonnull align 8 dereferenceable(176) %16)
          to label %18 unwind label %26

18:                                               ; preds = %2
  store ptr %17, ptr %7, align 8, !tbaa !46
  call void @llvm.lifetime.start.p0(i64 16, ptr %10) #3
  %19 = load ptr, ptr %5, align 8, !tbaa !10
  invoke void @_ZN2bv6solver7eval_bvEPN3euf5enodeE(ptr dead_on_unwind writable sret(%class.obj_ref) align 8 %10, ptr noundef nonnull align 8 dereferenceable(640) %13, ptr noundef %19)
          to label %20 unwind label %30

20:                                               ; preds = %18
  call void @llvm.lifetime.start.p0(i64 16, ptr %11) #3
  %21 = load ptr, ptr %5, align 8, !tbaa !10
  invoke void @_ZN2bv6solver9eval_argsEPN3euf5enodeER10ref_vectorI4expr11ast_managerE(ptr dead_on_unwind writable sret(%class.obj_ref) align 8 %11, ptr noundef nonnull align 8 dereferenceable(640) %13, ptr noundef %21, ptr noundef nonnull align 8 dereferenceable(16) %6)
          to label %22 unwind label %34

22:                                               ; preds = %20
  %23 = invoke noundef zeroext i1 @_ZeqI4expr11ast_managerEbRK7obj_refIT_T0_ES7_(ptr noundef nonnull align 8 dereferenceable(16) %10, ptr noundef nonnull align 8 dereferenceable(16) %11)
          to label %24 unwind label %38

24:                                               ; preds = %22
  br i1 %23, label %25, label %42

25:                                               ; preds = %24
  store i1 true, ptr %3, align 1
  store i32 1, ptr %12, align 4
  br label %53

26:                                               ; preds = %2
  %27 = landingpad { ptr, i32 }
          cleanup
  %28 = extractvalue { ptr, i32 } %27, 0
  store ptr %28, ptr %8, align 8
  %29 = extractvalue { ptr, i32 } %27, 1
  store i32 %29, ptr %9, align 4
  br label %57

30:                                               ; preds = %18
  %31 = landingpad { ptr, i32 }
          cleanup
  %32 = extractvalue { ptr, i32 } %31, 0
  store ptr %32, ptr %8, align 8
  %33 = extractvalue { ptr, i32 } %31, 1
  store i32 %33, ptr %9, align 4
  br label %56

34:                                               ; preds = %20
  %35 = landingpad { ptr, i32 }
          cleanup
  %36 = extractvalue { ptr, i32 } %35, 0
  store ptr %36, ptr %8, align 8
  %37 = extractvalue { ptr, i32 } %35, 1
  store i32 %37, ptr %9, align 4
  br label %55

38:                                               ; preds = %49, %47, %22
  %39 = landingpad { ptr, i32 }
          cleanup
  %40 = extractvalue { ptr, i32 } %39, 0
  store ptr %40, ptr %8, align 8
  %41 = extractvalue { ptr, i32 } %39, 1
  store i32 %41, ptr %9, align 4
  call void @_ZN7obj_refI4expr11ast_managerED2Ev(ptr noundef nonnull align 8 dereferenceable(16) %11) #3
  br label %55

42:                                               ; preds = %24
  %43 = getelementptr inbounds nuw %"class.bv::solver", ptr %13, i32 0, i32 24
  %44 = load i8, ptr %43, align 8, !tbaa !49, !range !40, !noundef !41
  %45 = trunc i8 %44 to i1
  br i1 %45, label %46, label %47

46:                                               ; preds = %42
  store i1 true, ptr %3, align 1
  store i32 1, ptr %12, align 4
  br label %53

47:                                               ; preds = %42
  %48 = load ptr, ptr %7, align 8, !tbaa !46
  invoke void @_ZN2bv6solver21set_delay_internalizeEP4exprNS0_16internalize_modeE(ptr noundef nonnull align 8 dereferenceable(640) %13, ptr noundef %48, i32 noundef 1)
          to label %49 unwind label %38

49:                                               ; preds = %47
  %50 = load ptr, ptr %7, align 8, !tbaa !46
  %51 = invoke noundef zeroext i1 @_ZN2bv6solver19internalize_circuitEP3app(ptr noundef nonnull align 8 dereferenceable(640) %13, ptr noundef %50)
          to label %52 unwind label %38

52:                                               ; preds = %49
  store i1 false, ptr %3, align 1
  store i32 1, ptr %12, align 4
  br label %53

53:                                               ; preds = %52, %46, %25
  call void @_ZN7obj_refI4expr11ast_managerED2Ev(ptr noundef nonnull align 8 dereferenceable(16) %11) #3
  call void @llvm.lifetime.end.p0(i64 16, ptr %11) #3
  call void @_ZN7obj_refI4expr11ast_managerED2Ev(ptr noundef nonnull align 8 dereferenceable(16) %10) #3
  call void @llvm.lifetime.end.p0(i64 16, ptr %10) #3
  call void @llvm.lifetime.end.p0(i64 8, ptr %7) #3
  call void @_ZN15ref_vector_coreI4expr19ref_manager_wrapperIS0_11ast_managerEED2Ev(ptr noundef nonnull align 8 dereferenceable(16) %6) #3
  call void @llvm.lifetime.end.p0(i64 16, ptr %6) #3
  %54 = load i1, ptr %3, align 1
  ret i1 %54

55:                                               ; preds = %38, %34
  call void @llvm.lifetime.end.p0(i64 16, ptr %11) #3
  call void @_ZN7obj_refI4expr11ast_managerED2Ev(ptr noundef nonnull align 8 dereferenceable(16) %10) #3
  br label %56

56:                                               ; preds = %55, %30
  call void @llvm.lifetime.end.p0(i64 16, ptr %10) #3
  br label %57

57:                                               ; preds = %56, %26
  call void @llvm.lifetime.end.p0(i64 8, ptr %7) #3
  call void @_ZN15ref_vector_coreI4expr19ref_manager_wrapperIS0_11ast_managerEED2Ev(ptr noundef nonnull align 8 dereferenceable(16) %6) #3
  call void @llvm.lifetime.end.p0(i64 16, ptr %6) #3
  br label %58

58:                                               ; preds = %57
  %59 = load ptr, ptr %8, align 8
  %60 = load i32, ptr %9, align 4
  %61 = insertvalue { ptr, i32 } poison, ptr %59, 0
  %62 = insertvalue { ptr, i32 } %61, i32 %60, 1
  resume { ptr, i32 } %62
}