; Function Attrs: mustprogress uwtable
define hidden noundef zeroext i1 @_ZN2bv6solver13check_bv_evalEPN3euf5enodeE(ptr noundef nonnull align 8 dereferenceable(640) %0, ptr noundef captures(address) %1) local_unnamed_addr #3 align 2 personality ptr @__gxx_personality_v0 {
  %3 = alloca %class.ref_vector, align 8
  %4 = alloca %class.obj_ref, align 8
  %5 = alloca %class.obj_ref, align 8
  call void @llvm.lifetime.start.p0(i64 16, ptr nonnull %3) #20
  %6 = getelementptr inbounds nuw i8, ptr %0, i64 72
  %7 = load ptr, ptr %6, align 8, !tbaa !98
  %8 = ptrtoint ptr %7 to i64
  store i64 %8, ptr %3, align 8, !tbaa !99
  %9 = getelementptr inbounds nuw i8, ptr %3, i64 8
  store ptr null, ptr %9, align 8, !tbaa !100
  %10 = load ptr, ptr %1, align 8, !tbaa !166
  call void @llvm.lifetime.start.p0(i64 16, ptr nonnull %4) #20
  invoke void @_ZN2bv6solver7eval_bvEPN3euf5enodeE(ptr dead_on_unwind nonnull writable sret(%class.obj_ref) align 8 %4, ptr noundef nonnull align 8 dereferenceable(640) %0, ptr noundef nonnull %1)
          to label %11 unwind label %16

11:                                               ; preds = %2
  call void @llvm.lifetime.start.p0(i64 16, ptr nonnull %5) #20
  invoke void @_ZN2bv6solver9eval_argsEPN3euf5enodeER10ref_vectorI4expr11ast_managerE(ptr dead_on_unwind nonnull writable sret(%class.obj_ref) align 8 %5, ptr noundef nonnull align 8 dereferenceable(640) %0, ptr noundef nonnull %1, ptr noundef nonnull align 8 dereferenceable(16) %3)
          to label %12 unwind label %18

12:                                               ; preds = %11
  %13 = load ptr, ptr %4, align 8, !tbaa !103
  %14 = load ptr, ptr %5, align 8, !tbaa !103
  %15 = icmp eq ptr %13, %14
  br i1 %15, label %thread-pre-split, label %22

16:                                               ; preds = %2
  %17 = landingpad { ptr, i32 }
          cleanup
  br label %78

18:                                               ; preds = %11
  %19 = landingpad { ptr, i32 }
          cleanup
  br label %77

20:                                               ; preds = %27, %26
  %21 = landingpad { ptr, i32 }
          cleanup
  call void @_ZN7obj_refI4expr11ast_managerED2Ev(ptr noundef nonnull align 8 dereferenceable(16) %5) #20
  br label %77

22:                                               ; preds = %12
  %23 = getelementptr inbounds nuw i8, ptr %0, i64 616
  %24 = load i8, ptr %23, align 8, !tbaa !105, !range !53, !noundef !54
  %25 = trunc nuw i8 %24 to i1
  br i1 %25, label %thread-pre-split, label %26

26:                                               ; preds = %22
  invoke void @_ZN2bv6solver21set_delay_internalizeEP4exprNS0_16internalize_modeE(ptr noundef nonnull align 8 dereferenceable(640) %0, ptr noundef %10, i32 noundef 1)
          to label %27 unwind label %20

27:                                               ; preds = %26
  %28 = invoke noundef zeroext i1 @_ZN2bv6solver19internalize_circuitEP3app(ptr noundef nonnull align 8 dereferenceable(640) %0, ptr noundef %10)
          to label %.thread-pre-split_crit_edge unwind label %20

.thread-pre-split_crit_edge:                      ; preds = %27
  %.pr.pre = load ptr, ptr %5, align 8, !tbaa !103
  br label %thread-pre-split

thread-pre-split:                                 ; preds = %22, %.thread-pre-split_crit_edge, %12
  %29 = phi ptr [ %14, %12 ], [ %.pr.pre, %.thread-pre-split_crit_edge ], [ %14, %22 ]
  %.010 = phi i1 [ true, %12 ], [ false, %.thread-pre-split_crit_edge ], [ true, %22 ]
  %.not.i.i = icmp eq ptr %29, null
  br i1 %.not.i.i, label %_ZN7obj_refI4expr11ast_managerED2Ev.exit, label %30

30:                                               ; preds = %thread-pre-split
  %31 = getelementptr inbounds nuw i8, ptr %5, i64 8
  %32 = load ptr, ptr %31, align 8, !tbaa !159
  %33 = getelementptr inbounds nuw i8, ptr %29, i64 8
  %34 = load i32, ptr %33, align 4, !tbaa !160
  %35 = add i32 %34, -1
  store i32 %35, ptr %33, align 4, !tbaa !160
  %36 = icmp eq i32 %35, 0
  br i1 %36, label %37, label %_ZN7obj_refI4expr11ast_managerED2Ev.exit

37:                                               ; preds = %30
  invoke void @_ZN11ast_manager11delete_nodeEP3ast(ptr noundef nonnull align 8 dereferenceable(976) %32, ptr noundef nonnull %29)
          to label %._ZN7obj_refI4expr11ast_managerED2Ev.exit_crit_edge unwind label %38

._ZN7obj_refI4expr11ast_managerED2Ev.exit_crit_edge: ; preds = %37
  %.pre = load ptr, ptr %4, align 8, !tbaa !103
  br label %_ZN7obj_refI4expr11ast_managerED2Ev.exit

38:                                               ; preds = %37
  %39 = landingpad { ptr, i32 }
          catch ptr null
  %40 = extractvalue { ptr, i32 } %39, 0
  call void @__clang_call_terminate(ptr %40) #21
  unreachable

_ZN7obj_refI4expr11ast_managerED2Ev.exit:         ; preds = %._ZN7obj_refI4expr11ast_managerED2Ev.exit_crit_edge, %thread-pre-split, %30
  %41 = phi ptr [ %.pre, %._ZN7obj_refI4expr11ast_managerED2Ev.exit_crit_edge ], [ %13, %thread-pre-split ], [ %13, %30 ]
  call void @llvm.lifetime.end.p0(i64 16, ptr nonnull %5) #20
  %.not.i.i13 = icmp eq ptr %41, null
  br i1 %.not.i.i13, label %_ZN7obj_refI4expr11ast_managerED2Ev.exit14, label %42

42:                                               ; preds = %_ZN7obj_refI4expr11ast_managerED2Ev.exit
  %43 = getelementptr inbounds nuw i8, ptr %4, i64 8
  %44 = load ptr, ptr %43, align 8, !tbaa !159
  %45 = getelementptr inbounds nuw i8, ptr %41, i64 8
  %46 = load i32, ptr %45, align 4, !tbaa !160
  %47 = add i32 %46, -1
  store i32 %47, ptr %45, align 4, !tbaa !160
  %48 = icmp eq i32 %47, 0
  br i1 %48, label %49, label %_ZN7obj_refI4expr11ast_managerED2Ev.exit14

49:                                               ; preds = %42
  invoke void @_ZN11ast_manager11delete_nodeEP3ast(ptr noundef nonnull align 8 dereferenceable(976) %44, ptr noundef nonnull %41)
          to label %_ZN7obj_refI4expr11ast_managerED2Ev.exit14 unwind label %50

50:                                               ; preds = %49
  %51 = landingpad { ptr, i32 }
          catch ptr null
  %52 = extractvalue { ptr, i32 } %51, 0
  call void @__clang_call_terminate(ptr %52) #21
  unreachable

_ZN7obj_refI4expr11ast_managerED2Ev.exit14:       ; preds = %_ZN7obj_refI4expr11ast_managerED2Ev.exit, %42, %49
  call void @llvm.lifetime.end.p0(i64 16, ptr nonnull %4) #20
  %53 = load ptr, ptr %9, align 8, !tbaa !100
  %54 = icmp eq ptr %53, null
  br i1 %54, label %_ZN15ref_vector_coreI4expr19ref_manager_wrapperIS0_11ast_managerEED2Ev.exit, label %_ZNK6vectorIP4exprLb0EjE4sizeEv.exit.i

_ZNK6vectorIP4exprLb0EjE4sizeEv.exit.i:           ; preds = %_ZN7obj_refI4expr11ast_managerED2Ev.exit14
  %55 = getelementptr inbounds i8, ptr %53, i64 -4
  %56 = load i32, ptr %55, align 4, !tbaa !161
  %57 = zext i32 %56 to i64
  %58 = getelementptr inbounds nuw ptr, ptr %53, i64 %57
  %.not.i = icmp eq i32 %56, 0
  br i1 %.not.i, label %_ZN15ref_vector_coreI4expr19ref_manager_wrapperIS0_11ast_managerEE13dec_range_refEPKPS0_S7_.exit.thread4.i, label %.lr.ph.i.i

.lr.ph.i.i:                                       ; preds = %_ZNK6vectorIP4exprLb0EjE4sizeEv.exit.i, %_ZN15ref_vector_coreI4expr19ref_manager_wrapperIS0_11ast_managerEE7dec_refEPS0_.exit.i.i
  %.06.i.i = phi ptr [ %67, %_ZN15ref_vector_coreI4expr19ref_manager_wrapperIS0_11ast_managerEE7dec_refEPS0_.exit.i.i ], [ %53, %_ZNK6vectorIP4exprLb0EjE4sizeEv.exit.i ]
  %59 = load ptr, ptr %.06.i.i, align 8, !tbaa !162
  %60 = load ptr, ptr %3, align 8, !tbaa !163
  %.not.i.i.i.i.i = icmp eq ptr %59, null
  br i1 %.not.i.i.i.i.i, label %_ZN15ref_vector_coreI4expr19ref_manager_wrapperIS0_11ast_managerEE7dec_refEPS0_.exit.i.i, label %61

61:                                               ; preds = %.lr.ph.i.i
  %62 = getelementptr inbounds nuw i8, ptr %59, i64 8
  %63 = load i32, ptr %62, align 4, !tbaa !160
  %64 = add i32 %63, -1
  store i32 %64, ptr %62, align 4, !tbaa !160
  %65 = icmp eq i32 %64, 0
  br i1 %65, label %66, label %_ZN15ref_vector_coreI4expr19ref_manager_wrapperIS0_11ast_managerEE7dec_refEPS0_.exit.i.i

66:                                               ; preds = %61
  invoke void @_ZN11ast_manager11delete_nodeEP3ast(ptr noundef nonnull align 8 dereferenceable(976) %60, ptr noundef nonnull %59)
          to label %_ZN15ref_vector_coreI4expr19ref_manager_wrapperIS0_11ast_managerEE7dec_refEPS0_.exit.i.i unwind label %74

_ZN15ref_vector_coreI4expr19ref_manager_wrapperIS0_11ast_managerEE7dec_refEPS0_.exit.i.i: ; preds = %66, %61, %.lr.ph.i.i
  %67 = getelementptr inbounds nuw i8, ptr %.06.i.i, i64 8
  %68 = icmp ult ptr %67, %58
  br i1 %68, label %.lr.ph.i.i, label %_ZN15ref_vector_coreI4expr19ref_manager_wrapperIS0_11ast_managerEE13dec_range_refEPKPS0_S7_.exit.i, !llvm.loop !165

_ZN15ref_vector_coreI4expr19ref_manager_wrapperIS0_11ast_managerEE13dec_range_refEPKPS0_S7_.exit.i: ; preds = %_ZN15ref_vector_coreI4expr19ref_manager_wrapperIS0_11ast_managerEE7dec_refEPS0_.exit.i.i
  %.pre.i = load ptr, ptr %9, align 8, !tbaa !100
  %.not.i.i.i = icmp eq ptr %.pre.i, null
  br i1 %.not.i.i.i, label %_ZN15ref_vector_coreI4expr19ref_manager_wrapperIS0_11ast_managerEED2Ev.exit, label %_ZN15ref_vector_coreI4expr19ref_manager_wrapperIS0_11ast_managerEE13dec_range_refEPKPS0_S7_.exit.thread4.i

_ZN15ref_vector_coreI4expr19ref_manager_wrapperIS0_11ast_managerEE13dec_range_refEPKPS0_S7_.exit.thread4.i: ; preds = %_ZN15ref_vector_coreI4expr19ref_manager_wrapperIS0_11ast_managerEE13dec_range_refEPKPS0_S7_.exit.i, %_ZNK6vectorIP4exprLb0EjE4sizeEv.exit.i
  %69 = phi ptr [ %.pre.i, %_ZN15ref_vector_coreI4expr19ref_manager_wrapperIS0_11ast_managerEE13dec_range_refEPKPS0_S7_.exit.i ], [ %53, %_ZNK6vectorIP4exprLb0EjE4sizeEv.exit.i ]
  %70 = getelementptr inbounds i8, ptr %69, i64 -8
  invoke void @_ZN6memory10deallocateEPv(ptr noundef nonnull %70)
          to label %_ZN15ref_vector_coreI4expr19ref_manager_wrapperIS0_11ast_managerEED2Ev.exit unwind label %71

71:                                               ; preds = %_ZN15ref_vector_coreI4expr19ref_manager_wrapperIS0_11ast_managerEE13dec_range_refEPKPS0_S7_.exit.thread4.i
  %72 = landingpad { ptr, i32 }
          catch ptr null
  %73 = extractvalue { ptr, i32 } %72, 0
  call void @__clang_call_terminate(ptr %73) #21
  unreachable

74:                                               ; preds = %66
  %75 = landingpad { ptr, i32 }
          catch ptr null
  %76 = extractvalue { ptr, i32 } %75, 0
  call void @__clang_call_terminate(ptr %76) #21
  unreachable

_ZN15ref_vector_coreI4expr19ref_manager_wrapperIS0_11ast_managerEED2Ev.exit: ; preds = %_ZN7obj_refI4expr11ast_managerED2Ev.exit14, %_ZN15ref_vector_coreI4expr19ref_manager_wrapperIS0_11ast_managerEE13dec_range_refEPKPS0_S7_.exit.i, %_ZN15ref_vector_coreI4expr19ref_manager_wrapperIS0_11ast_managerEE13dec_range_refEPKPS0_S7_.exit.thread4.i
  call void @llvm.lifetime.end.p0(i64 16, ptr nonnull %3) #20
  ret i1 %.010

77:                                               ; preds = %20, %18
  %.pn = phi { ptr, i32 } [ %21, %20 ], [ %19, %18 ]
  call void @llvm.lifetime.end.p0(i64 16, ptr nonnull %5) #20
  call void @_ZN7obj_refI4expr11ast_managerED2Ev(ptr noundef nonnull align 8 dereferenceable(16) %4) #20
  br label %78

78:                                               ; preds = %77, %16
  %.pn.pn = phi { ptr, i32 } [ %.pn, %77 ], [ %17, %16 ]
  call void @llvm.lifetime.end.p0(i64 16, ptr nonnull %4) #20
  call void @_ZN15ref_vector_coreI4expr19ref_manager_wrapperIS0_11ast_managerEED2Ev(ptr noundef nonnull align 8 dereferenceable(16) %3) #20
  call void @llvm.lifetime.end.p0(i64 16, ptr nonnull %3) #20
  resume { ptr, i32 } %.pn.pn
}